target datalayout = "e-m:e-p270:32:32-p271:32:32-p272:64:64-i64:64-i128:128-f80:128-n8:16:32:64-S128"
target triple = "x86_64-pc-linux-gnu"

%struct.ImVec4 = type { float, float, float, float }
%struct.ImVector = type { i32, i32, ptr }
%struct.ImDrawList = type { %struct.ImVector.0, %struct.ImVector.1, %struct.ImVector.2, i32, i32, ptr, ptr, ptr, %struct.ImVector, %struct.ImDrawCmdHeader, %struct.ImDrawListSplitter, %struct.ImVector.4, %struct.ImVector.5, float, ptr }
%struct.ImVector.0 = type { i32, i32, ptr }
%struct.ImVector.1 = type { i32, i32, ptr }
%struct.ImVector.2 = type { i32, i32, ptr }
%struct.ImDrawCmdHeader = type <{ %struct.ImVec4, ptr, i32, [4 x i8] }>
%struct.ImDrawListSplitter = type { i32, i32, %struct.ImVector.3 }
%struct.ImVector.3 = type { i32, i32, ptr }
%struct.ImVector.4 = type { i32, i32, ptr }
%struct.ImVector.5 = type { i32, i32, ptr }

; Function Attrs: inlinehint mustprogress uwtable
define linkonce_odr dso_local void @_ZN10ImDrawList14PathFillConvexEj(ptr noundef nonnull align 8 dereferenceable(200) %0, i32 noundef %1) #5 comdat align 2 {
  %3 = alloca ptr, align 8
  %4 = alloca i32, align 4
  store ptr %0, ptr %3, align 8, !tbaa !43
  store i32 %1, ptr %4, align 4, !tbaa !21
  %5 = load ptr, ptr %3, align 8
  %6 = getelementptr inbounds nuw %struct.ImDrawList, ptr %5, i32 0, i32 8
  %7 = getelementptr inbounds nuw %struct.ImVector, ptr %6, i32 0, i32 2
  %8 = load ptr, ptr %7, align 8, !tbaa !161
  %9 = getelementptr inbounds nuw %struct.ImDrawList, ptr %5, i32 0, i32 8
  %10 = getelementptr inbounds nuw %struct.ImVector, ptr %9, i32 0, i32 0
  %11 = load i32, ptr %10, align 8, !tbaa !160
  %12 = load i32, ptr %4, align 4, !tbaa !21
  call void @_ZN10ImDrawList19AddConvexPolyFilledEPK6ImVec2ij(ptr noundef nonnull align 8 dereferenceable(200) %5, ptr noundef %8, i32 noundef %11, i32 noundef %12)
  %13 = getelementptr inbounds nuw %struct.ImDrawList, ptr %5, i32 0, i32 8
  %14 = getelementptr inbounds nuw %struct.ImVector, ptr %13, i32 0, i32 0
  store i32 0, ptr %14, align 8, !tbaa !160
  ret void
}

; Function Attrs: inlinehint mustprogress nounwind uwtable
define internal noundef i32 @_ZL7ImClampIiET_S0_S0_S0_(i32 noundef %0, i32 noundef %1, i32 noundef %2) #7 {
  %4 = alloca i32, align 4
  %5 = alloca i32, align 4
  %6 = alloca i32, align 4
  store i32 %0, ptr %4, align 4, !tbaa !21
  store i32 %1, ptr %5, align 4, !tbaa !21
  store i32 %2, ptr %6, align 4, !tbaa !21
  %7 = load i32, ptr %4, align 4, !tbaa !21
  %8 = load i32, ptr %5, align 4, !tbaa !21
  %9 = icmp slt i32 %7, %8
  br i1 %9, label %10, label %12

10:                                               ; preds = %3
  %11 = load i32, ptr %5, align 4, !tbaa !21
  br label %22

12:                                               ; preds = %3
  %13 = load i32, ptr %4, align 4, !tbaa !21
  %14 = load i32, ptr %6, align 4, !tbaa !21
  %15 = icmp sgt i32 %13, %14
  br i1 %15, label %16, label %18

16:                                               ; preds = %12
  %17 = load i32, ptr %6, align 4, !tbaa !21
  br label %20

18:                                               ; preds = %12
  %19 = load i32, ptr %4, align 4, !tbaa !21
  br label %20

20:                                               ; preds = %18, %16
  %21 = phi i32 [ %17, %16 ], [ %19, %18 ]
  br label %22

22:                                               ; preds = %20, %10
  %23 = phi i32 [ %11, %10 ], [ %21, %20 ]
  ret i32 %23
}

; Function Attrs: mustprogress uwtable
define dso_local void @_ZN10ImDrawList15AddCircleFilledERK6ImVec2fji(ptr noundef nonnull align 8 dereferenceable(200) %0, ptr noundef nonnull align 4 dereferenceable(8) %1, float noundef %2, i32 noundef %3, i32 noundef %4) #6 align 2 {
  %6 = alloca ptr, align 8
  %7 = alloca ptr, align 8
  %8 = alloca float, align 4
  %9 = alloca i32, align 4
  %10 = alloca i32, align 4
  %11 = alloca float, align 4
  store ptr %0, ptr %6, align 8, !tbaa !43
  store ptr %1, ptr %7, align 8, !tbaa !33
  store float %2, ptr %8, align 4, !tbaa !12
  store i32 %3, ptr %9, align 4, !tbaa !21
  store i32 %4, ptr %10, align 4, !tbaa !21
  %12 = load ptr, ptr %6, align 8
  %13 = load i32, ptr %9, align 4, !tbaa !21
  %14 = and i32 %13, -16777216
  %15 = icmp eq i32 %14, 0
  br i1 %15, label %19, label %16

16:                                               ; preds = %5
  %17 = load float, ptr %8, align 4, !tbaa !12
  %18 = fcmp olt float %17, 5.000000e-01
  br i1 %18, label %19, label %20

19:                                               ; preds = %16, %5
  br label %47

20:                                               ; preds = %16
  %21 = load i32, ptr %10, align 4, !tbaa !21
  %22 = icmp sle i32 %21, 0
  br i1 %22, label %23, label %30

23:                                               ; preds = %20
  %24 = load ptr, ptr %7, align 8, !tbaa !33
  %25 = load float, ptr %8, align 4, !tbaa !12
  call void @_ZN10ImDrawList16_PathArcToFastExERK6ImVec2fiii(ptr noundef nonnull align 8 dereferenceable(200) %12, ptr noundef nonnull align 4 dereferenceable(8) %24, float noundef %25, i32 noundef 0, i32 noundef 48, i32 noundef 0)
  %26 = getelementptr inbounds nuw %struct.ImDrawList, ptr %12, i32 0, i32 8
  %27 = getelementptr inbounds nuw %struct.ImVector, ptr %26, i32 0, i32 0
  %28 = load i32, ptr %27, align 8, !tbaa !160
  %29 = add nsw i32 %28, -1
  store i32 %29, ptr %27, align 8, !tbaa !160
  br label %45

30:                                               ; preds = %20
  %31 = load i32, ptr %10, align 4, !tbaa !21
  %32 = call noundef i32 @_ZL7ImClampIiET_S0_S0_S0_(i32 noundef %31, i32 noundef 3, i32 noundef 512)
  store i32 %32, ptr %10, align 4, !tbaa !21
  call void @llvm.lifetime.start.p0(i64 4, ptr %11) #17
  %33 = load i32, ptr %10, align 4, !tbaa !21
  %34 = sitofp i32 %33 to float
  %35 = fsub float %34, 1.000000e+00
  %36 = fmul float 0x401921FB60000000, %35
  %37 = load i32, ptr %10, align 4, !tbaa !21
  %38 = sitofp i32 %37 to float
  %39 = fdiv float %36, %38
  store float %39, ptr %11, align 4, !tbaa !12
  %40 = load ptr, ptr %7, align 8, !tbaa !33
  %41 = load float, ptr %8, align 4, !tbaa !12
  %42 = load float, ptr %11, align 4, !tbaa !12
  %43 = load i32, ptr %10, align 4, !tbaa !21
  %44 = sub nsw i32 %43, 1
  call void @_ZN10ImDrawList9PathArcToERK6ImVec2fffi(ptr noundef nonnull align 8 dereferenceable(200) %12, ptr noundef nonnull align 4 dereferenceable(8) %40, float noundef %41, float noundef 0.000000e+00, float noundef %42, i32 noundef %44)
  call void @llvm.lifetime.end.p0(i64 4, ptr %11) #17
  br label %45

45:                                               ; preds = %30, %23
  %46 = load i32, ptr %9, align 4, !tbaa !21
  call void @_ZN10ImDrawList14PathFillConvexEj(ptr noundef nonnull align 8 dereferenceable(200) %12, i32 noundef %46)
  br label %47

47:                                               ; preds = %45, %19
  ret void
}